(dp1
S'PHE,5'
p2
F0
sS'ALA,1'
p3
F1
sS'MET,2'
p4
F0.035999999999999997
sS'LYS,15'
p5
F0.0050000000000000001
sS'LYS,14'
p6
F0.02
sS'LYS,17'
p7
F0.012
sS'LYS,16'
p8
F0.0040000000000000001
sS'LYS,11'
p9
F0.050000000000000003
sS'LYS,10'
p10
F0.025000000000000001
sS'LYS,13'
p11
F0.037999999999999999
sS'LYS,12'
p12
F0.16500000000000001
sS'MET,7'
p13
F0.075999999999999998
sS'LYS,19'
p14
F0.042999999999999997
sS'LYS,18'
p15
F0.039
sS'SER,1'
p16
F0.48899999999999999
sS'MET,6'
p17
F0.035999999999999997
sS'GLU,10'
p18
F0.066000000000000003
sS'MET,5'
p19
F0.058999999999999997
sS'MET,4'
p20
F0.019
sS'THR,1'
p21
F0.49399999999999999
sS'GLU,7'
p22
F0.26100000000000001
sS'GLU,6'
p23
F0
sS'GLU,5'
p24
F0.068000000000000005
sS'GLU,4'
p25
F0.024
sS'GLU,3'
p26
F0
sS'GLU,2'
p27
F0.059999999999999998
sS'GLU,1'
p28
F0
sS'THR,3'
p29
F0.437
sS'GLU,9'
p30
F0.012999999999999999
sS'GLU,8'
p31
F0
sS'LYS,20'
p32
F0.248
sS'LYS,21'
p33
F0.057000000000000002
sS'LYS,22'
p34
F0.041000000000000002
sS'LYS,23'
p35
F0.012
sS'LYS,24'
p36
F0.0089999999999999993
sS'LYS,25'
p37
F0.078
sS'LYS,26'
p38
F0.017999999999999999
sS'LYS,27'
p39
F0.01
sS'TRP,7'
p40
F0.33400000000000002
sS'PHE,1'
p41
F0.129
sS'TRP,6'
p42
F0.082000000000000003
sS'TYR,4'
p43
F0.087999999999999995
sS'TYR,5'
p44
F0
sS'LEU,2'
p45
F0.309
sS'TYR,1'
p46
F0.129
sS'TYR,2'
p47
F0.34499999999999997
sS'TYR,3'
p48
F0.438
sS'ILE,1'
p49
F0.0060000000000000001
sS'ILE,3'
p50
F0.021999999999999999
sS'ILE,2'
p51
F0.13100000000000001
sS'ILE,5'
p52
F0.012
sS'ILE,4'
p53
F0.076999999999999999
sS'ILE,7'
p54
F0.14699999999999999
sS'ILE,6'
p55
F0.60399999999999998
sS'ASP,1'
p56
F0
sS'ARG,14'
p57
F0.012
sS'ARG,17'
p58
F0.034000000000000002
sS'ASP,2'
p59
F0.099000000000000005
sS'ARG,11'
p60
F0.02
sS'ASP,4'
p61
F0
sS'ASP,7'
p62
F0.53300000000000003
sS'ASP,6'
p63
F0.058000000000000003
sS'ASP,9'
p64
F0.75
sS'ASP,8'
p65
F0
sS'LEU,5'
p66
F0.63700000000000001
sS'LEU,4'
p67
F0.025999999999999999
sS'ARG,19'
p68
F0.017000000000000001
sS'ARG,18'
p69
F0.012999999999999999
sS'LEU,1'
p70
F0.0089999999999999993
sS'ARG,5'
p71
F0.02
sS'ARG,15'
p72
F0.025000000000000001
sS'ARG,7'
p73
F0.0070000000000000001
sS'ARG,6'
p74
F0.0080000000000000002
sS'ARG,1'
p75
F0.0040000000000000001
sS'ASN,20'
p76
F0.34999999999999998
sS'ARG,2'
p77
F0.014
sS'ARG,9'
p78
F0.01
sS'ASP,3'
p79
F0.095000000000000001
sS'ASN,7'
p80
F0.41499999999999998
sS'ASN,6'
p81
F0.16300000000000001
sS'ASN,5'
p82
F0.127
sS'ARG,16'
p83
F0.042999999999999997
sS'ASN,3'
p84
F0.095000000000000001
sS'ASN,2'
p85
F0.073999999999999996
sS'ASN,1'
p86
F0
sS'PHE,3'
p87
F0.44400000000000001
sS'ASP,5'
p88
F0.215
sS'ASN,9'
p89
F0.042000000000000003
sS'ARG,10'
p90
F0.025999999999999999
sS'ARG,13'
p91
F0.033000000000000002
sS'SER,3'
p92
F0.29099999999999998
sS'ARG,12'
p93
F0.042999999999999997
sS'SER,2'
p94
F0.22
sS'ARG,20'
p95
F0.035999999999999997
sS'ARG,21'
p96
F0.029000000000000001
sS'ARG,22'
p97
F0.058999999999999997
sS'ARG,23'
p98
F0.0089999999999999993
sS'ARG,24'
p99
F0.043999999999999997
sS'ARG,25'
p100
F0.11600000000000001
sS'ARG,26'
p101
F0.069000000000000006
sS'ARG,27'
p102
F0.02
sS'ARG,28'
p103
F0.062
sS'ARG,29'
p104
F0.070000000000000007
sS'VAL,1'
p105
F0.064000000000000001
sS'VAL,2'
p106
F0.73499999999999999
sS'VAL,3'
p107
F0.20000000000000001
sS'LEU,3'
p108
F0.02
sS'ASN,8'
p109
F0.085000000000000006
sS'GLU,15'
p110
F0
sS'GLU,14'
p111
F0.14699999999999999
sS'ARG,4'
p112
F0.021000000000000001
sS'GLU,13'
p113
F0
sS'THR,2'
p114
F0.070000000000000007
sS'GLU,12'
p115
F0.36099999999999999
sS'HIS,1'
p116
F0.090999999999999998
sS'HIS,3'
p117
F0.055
sS'HIS,2'
p118
F0.045999999999999999
sS'HIS,5'
p119
F0.16700000000000001
sS'HIS,4'
p120
F0.114
sS'HIS,7'
p121
F0.078
sS'HIS,6'
p122
F0.31
sS'MET,3'
p123
F0.064000000000000001
sS'HIS,8'
p124
F0.13900000000000001
sS'MET,1'
p125
F0.025000000000000001
sS'ARG,34'
p126
F0.029000000000000001
sS'ARG,33'
p127
F0.014
sS'ARG,32'
p128
F0.029000000000000001
sS'ARG,31'
p129
F0.023
sS'ARG,30'
p130
F0.0089999999999999993
sS'ARG,3'
p131
F0.021000000000000001
sS'GLY,1'
p132
F1
sS'ASP,11'
p133
F0.38
sS'ASP,10'
p134
F0.19
sS'ASP,13'
p135
F0.53000000000000003
sS'ASP,12'
p136
F0.059999999999999998
sS'ASP,15'
p137
F0.28999999999999998
sS'ASP,14'
p138
F0.60999999999999999
sS'GLU,11'
p139
F0
sS'ARG,8'
p140
F0.014
sS'PHE,4'
p141
F0.095000000000000001
sS'ASN,19'
p142
F0.55000000000000004
sS'ASN,18'
p143
F0.38
sS'ASN,17'
p144
F0.029999999999999999
sS'ASN,16'
p145
F0.35999999999999999
sS'ASN,15'
p146
F0.080000000000000002
sS'ASN,14'
p147
F0.050000000000000003
sS'ASN,13'
p148
F0.12
sS'ASN,12'
p149
F0.029999999999999999
sS'ASN,11'
p150
F0.080000000000000002
sS'ASN,10'
p151
F0.66000000000000003
sS'PRO,1'
p152
F0.46999999999999997
sS'PRO,2'
p153
F0.46100000000000002
sS'ASN,4'
p154
F0
sS'GLN,14'
p155
F0.16700000000000001
sS'GLN,15'
p156
F0.029000000000000001
sS'GLN,12'
p157
F0.39900000000000002
sS'GLN,13'
p158
F0
sS'GLN,10'
p159
F0.032000000000000001
sS'GLN,11'
p160
F0
sS'PHE,2'
p161
F0.33200000000000002
sS'TRP,3'
p162
F0.17100000000000001
sS'TRP,2'
p163
F0.058000000000000003
sS'TRP,1'
p164
F0.115
sS'GLN,8'
p165
F0.184
sS'GLN,9'
p166
F0
sS'TRP,5'
p167
F0.052999999999999999
sS'TRP,4'
p168
F0.187
sS'GLN,4'
p169
F0.02
sS'GLN,5'
p170
F0.017999999999999999
sS'GLN,6'
p171
F0.10199999999999999
sS'GLN,7'
p172
F0
sS'GLN,1'
p173
F0
sS'GLN,2'
p174
F0.049000000000000002
sS'GLN,3'
p175
F0
sS'MET,13'
p176
F0.222
sS'MET,12'
p177
F0.021000000000000001
sS'MET,11'
p178
F0.032000000000000001
sS'MET,10'
p179
F0.123
sS'MET,9'
p180
F0.090999999999999998
sS'LYS,5'
p181
F0.0050000000000000001
sS'LYS,4'
p182
F0.0080000000000000002
sS'LYS,7'
p183
F0.033000000000000002
sS'LYS,6'
p184
F0.010999999999999999
sS'LYS,1'
p185
F0.0070000000000000001
sS'LYS,3'
p186
F0.029000000000000001
sS'LYS,2'
p187
F0.012999999999999999
sS'CYS,2'
p188
F0.26400000000000001
sS'CYS,3'
p189
F0.50700000000000001
sS'MET,8'
p190
F0.19500000000000001
sS'CYS,1'
p191
F0.22900000000000001
sS'LYS,9'
p192
F0.012
sS'LYS,8'
p193
F0.0070000000000000001
s.